target datalayout = "e-m:e-p270:32:32-p271:32:32-p272:64:64-i64:64-i128:128-f80:128-n8:16:32:64-S128"
target triple = "x86_64-pc-linux-gnu"

%struct.JSValue = type { %union.JSValueUnion, i64 }
%union.JSValueUnion = type { double }
%struct.JSSTDFile = type { ptr, i32, i32 }

@js_std_file_class_id = internal global i32 0, align 4
@.str.41 = private unnamed_addr constant [20 x i8] c"invalid file handle\00", align 1

; Function Attrs: nounwind uwtable
define internal ptr @js_std_file_get(ptr noundef %0, i64 %1, i64 %2) #0 {
  %4 = alloca ptr, align 8
  %5 = alloca %struct.JSValue, align 8
  %6 = alloca ptr, align 8
  %7 = alloca ptr, align 8
  %8 = alloca %struct.JSValue, align 8
  %9 = getelementptr inbounds { i64, i64 }, ptr %5, i32 0, i32 0
  store i64 %1, ptr %9, align 8
  %10 = getelementptr inbounds { i64, i64 }, ptr %5, i32 0, i32 1
  store i64 %2, ptr %10, align 8
  store ptr %0, ptr %6, align 8
  %11 = load ptr, ptr %6, align 8
  %12 = load i32, ptr @js_std_file_class_id, align 4
  %13 = getelementptr inbounds { i64, i64 }, ptr %5, i32 0, i32 0
  %14 = load i64, ptr %13, align 8
  %15 = getelementptr inbounds { i64, i64 }, ptr %5, i32 0, i32 1
  %16 = load i64, ptr %15, align 8
  %17 = call ptr @JS_GetOpaque2(ptr noundef %11, i64 %14, i64 %16, i32 noundef %12)
  store ptr %17, ptr %7, align 8
  %18 = load ptr, ptr %7, align 8
  %19 = icmp ne ptr %18, null
  br i1 %19, label %21, label %20

20:                                               ; preds = %3
  store ptr null, ptr %4, align 8
  br label %37

21:                                               ; preds = %3
  %22 = load ptr, ptr %7, align 8
  %23 = getelementptr inbounds %struct.JSSTDFile, ptr %22, i32 0, i32 0
  %24 = load ptr, ptr %23, align 8
  %25 = icmp ne ptr %24, null
  br i1 %25, label %33, label %26

26:                                               ; preds = %21
  %27 = load ptr, ptr %6, align 8
  %28 = call { i64, i64 } (ptr, ptr, ...) @JS_ThrowTypeError(ptr noundef %27, ptr noundef @.str.41)
  %29 = getelementptr inbounds { i64, i64 }, ptr %8, i32 0, i32 0
  %30 = extractvalue { i64, i64 } %28, 0
  store i64 %30, ptr %29, align 8
  %31 = getelementptr inbounds { i64, i64 }, ptr %8, i32 0, i32 1
  %32 = extractvalue { i64, i64 } %28, 1
  store i64 %32, ptr %31, align 8
  store ptr null, ptr %4, align 8
  br label %37

33:                                               ; preds = %21
  %34 = load ptr, ptr %7, align 8
  %35 = getelementptr inbounds %struct.JSSTDFile, ptr %34, i32 0, i32 0
  %36 = load ptr, ptr %35, align 8
  store ptr %36, ptr %4, align 8
  br label %37

37:                                               ; preds = %33, %26, %20
  %38 = load ptr, ptr %4, align 8
  ret ptr %38
}

; Function Attrs: nounwind uwtable
define internal { i64, i64 } @js_std_file_error(ptr noundef %0, i64 %1, i64 %2, i32 noundef %3, ptr noundef %4) #0 {
  %6 = alloca %struct.JSValue, align 8
  %7 = alloca ptr, align 8
  %8 = alloca i32, align 4
  %9 = alloca %struct.JSValue, align 8
  %10 = alloca %struct.JSValue, align 8
  %11 = alloca ptr, align 8
  %12 = alloca i32, align 4
  %13 = alloca ptr, align 8
  %14 = alloca ptr, align 8
  %15 = getelementptr inbounds { i64, i64 }, ptr %10, i32 0, i32 0
  store i64 %1, ptr %15, align 8
  %16 = getelementptr inbounds { i64, i64 }, ptr %10, i32 0, i32 1
  store i64 %2, ptr %16, align 8
  store ptr %0, ptr %11, align 8
  store i32 %3, ptr %12, align 4
  store ptr %4, ptr %13, align 8
  %17 = load ptr, ptr %11, align 8
  %18 = getelementptr inbounds { i64, i64 }, ptr %10, i32 0, i32 0
  %19 = load i64, ptr %18, align 8
  %20 = getelementptr inbounds { i64, i64 }, ptr %10, i32 0, i32 1
  %21 = load i64, ptr %20, align 8
  %22 = call ptr @js_std_file_get(ptr noundef %17, i64 %19, i64 %21)
  store ptr %22, ptr %14, align 8
  %23 = load ptr, ptr %14, align 8
  %24 = icmp ne ptr %23, null
  br i1 %24, label %28, label %25

25:                                               ; preds = %5
  %26 = getelementptr inbounds %struct.JSValue, ptr %9, i32 0, i32 0
  store i32 0, ptr %26, align 8
  %27 = getelementptr inbounds %struct.JSValue, ptr %9, i32 0, i32 1
  store i64 6, ptr %27, align 8
  br label %41

28:                                               ; preds = %5
  %29 = load ptr, ptr %11, align 8
  %30 = load ptr, ptr %14, align 8
  %31 = call i32 @ferror(ptr noundef %30) #12
  store ptr %29, ptr %7, align 8
  store i32 %31, ptr %8, align 4
  %32 = load i32, ptr %8, align 4
  %33 = icmp ne i32 %32, 0
  %34 = zext i1 %33 to i32
  store i32 %34, ptr %6, align 8
  %35 = getelementptr inbounds %struct.JSValue, ptr %6, i32 0, i32 1
  store i64 1, ptr %35, align 8
  %36 = load { i64, i64 }, ptr %6, align 8
  %37 = getelementptr inbounds { i64, i64 }, ptr %9, i32 0, i32 0
  %38 = extractvalue { i64, i64 } %36, 0
  store i64 %38, ptr %37, align 8
  %39 = getelementptr inbounds { i64, i64 }, ptr %9, i32 0, i32 1
  %40 = extractvalue { i64, i64 } %36, 1
  store i64 %40, ptr %39, align 8
  br label %41

41:                                               ; preds = %28, %25
  %42 = load { i64, i64 }, ptr %9, align 8
  ret { i64, i64 } %42
}